target datalayout = "e-m:e-p270:32:32-p271:32:32-p272:64:64-i64:64-i128:128-f80:128-n8:16:32:64-S128"
target triple = "x86_64-pc-linux-gnu"

; Function Attrs: nounwind uwtable
define internal void @ff_h264_add_pixels8_8_c(ptr noundef %0, ptr noundef %1, i32 noundef %2) #1 {
  %4 = alloca ptr, align 8
  %5 = alloca ptr, align 8
  %6 = alloca i32, align 4
  %7 = alloca i32, align 4
  %8 = alloca ptr, align 8
  %9 = alloca ptr, align 8
  store ptr %0, ptr %4, align 8, !tbaa !39
  store ptr %1, ptr %5, align 8, !tbaa !41
  store i32 %2, ptr %6, align 4, !tbaa !9
  call void @llvm.lifetime.start.p0(i64 4, ptr %7) #9
  call void @llvm.lifetime.start.p0(i64 8, ptr %8) #9
  %10 = load ptr, ptr %4, align 8, !tbaa !39
  store ptr %10, ptr %8, align 8, !tbaa !39
  call void @llvm.lifetime.start.p0(i64 8, ptr %9) #9
  %11 = load ptr, ptr %5, align 8, !tbaa !41
  store ptr %11, ptr %9, align 8, !tbaa !41
  %12 = load i32, ptr %6, align 4, !tbaa !9
  %13 = sext i32 %12 to i64
  %14 = udiv i64 %13, 1
  %15 = trunc i64 %14 to i32
  store i32 %15, ptr %6, align 4, !tbaa !9
  store i32 0, ptr %7, align 4, !tbaa !9
  br label %16

16:                                               ; preds = %106, %3
  %17 = load i32, ptr %7, align 4, !tbaa !9
  %18 = icmp slt i32 %17, 8
  br i1 %18, label %19, label %109

19:                                               ; preds = %16
  %20 = load ptr, ptr %9, align 8, !tbaa !41
  %21 = getelementptr inbounds i16, ptr %20, i64 0
  %22 = load i16, ptr %21, align 2, !tbaa !45
  %23 = sext i16 %22 to i32
  %24 = load ptr, ptr %8, align 8, !tbaa !39
  %25 = getelementptr inbounds i8, ptr %24, i64 0
  %26 = load i8, ptr %25, align 1, !tbaa !50
  %27 = zext i8 %26 to i32
  %28 = add i32 %27, %23
  %29 = trunc i32 %28 to i8
  store i8 %29, ptr %25, align 1, !tbaa !50
  %30 = load ptr, ptr %9, align 8, !tbaa !41
  %31 = getelementptr inbounds i16, ptr %30, i64 1
  %32 = load i16, ptr %31, align 2, !tbaa !45
  %33 = sext i16 %32 to i32
  %34 = load ptr, ptr %8, align 8, !tbaa !39
  %35 = getelementptr inbounds i8, ptr %34, i64 1
  %36 = load i8, ptr %35, align 1, !tbaa !50
  %37 = zext i8 %36 to i32
  %38 = add i32 %37, %33
  %39 = trunc i32 %38 to i8
  store i8 %39, ptr %35, align 1, !tbaa !50
  %40 = load ptr, ptr %9, align 8, !tbaa !41
  %41 = getelementptr inbounds i16, ptr %40, i64 2
  %42 = load i16, ptr %41, align 2, !tbaa !45
  %43 = sext i16 %42 to i32
  %44 = load ptr, ptr %8, align 8, !tbaa !39
  %45 = getelementptr inbounds i8, ptr %44, i64 2
  %46 = load i8, ptr %45, align 1, !tbaa !50
  %47 = zext i8 %46 to i32
  %48 = add i32 %47, %43
  %49 = trunc i32 %48 to i8
  store i8 %49, ptr %45, align 1, !tbaa !50
  %50 = load ptr, ptr %9, align 8, !tbaa !41
  %51 = getelementptr inbounds i16, ptr %50, i64 3
  %52 = load i16, ptr %51, align 2, !tbaa !45
  %53 = sext i16 %52 to i32
  %54 = load ptr, ptr %8, align 8, !tbaa !39
  %55 = getelementptr inbounds i8, ptr %54, i64 3
  %56 = load i8, ptr %55, align 1, !tbaa !50
  %57 = zext i8 %56 to i32
  %58 = add i32 %57, %53
  %59 = trunc i32 %58 to i8
  store i8 %59, ptr %55, align 1, !tbaa !50
  %60 = load ptr, ptr %9, align 8, !tbaa !41
  %61 = getelementptr inbounds i16, ptr %60, i64 4
  %62 = load i16, ptr %61, align 2, !tbaa !45
  %63 = sext i16 %62 to i32
  %64 = load ptr, ptr %8, align 8, !tbaa !39
  %65 = getelementptr inbounds i8, ptr %64, i64 4
  %66 = load i8, ptr %65, align 1, !tbaa !50
  %67 = zext i8 %66 to i32
  %68 = add i32 %67, %63
  %69 = trunc i32 %68 to i8
  store i8 %69, ptr %65, align 1, !tbaa !50
  %70 = load ptr, ptr %9, align 8, !tbaa !41
  %71 = getelementptr inbounds i16, ptr %70, i64 5
  %72 = load i16, ptr %71, align 2, !tbaa !45
  %73 = sext i16 %72 to i32
  %74 = load ptr, ptr %8, align 8, !tbaa !39
  %75 = getelementptr inbounds i8, ptr %74, i64 5
  %76 = load i8, ptr %75, align 1, !tbaa !50
  %77 = zext i8 %76 to i32
  %78 = add i32 %77, %73
  %79 = trunc i32 %78 to i8
  store i8 %79, ptr %75, align 1, !tbaa !50
  %80 = load ptr, ptr %9, align 8, !tbaa !41
  %81 = getelementptr inbounds i16, ptr %80, i64 6
  %82 = load i16, ptr %81, align 2, !tbaa !45
  %83 = sext i16 %82 to i32
  %84 = load ptr, ptr %8, align 8, !tbaa !39
  %85 = getelementptr inbounds i8, ptr %84, i64 6
  %86 = load i8, ptr %85, align 1, !tbaa !50
  %87 = zext i8 %86 to i32
  %88 = add i32 %87, %83
  %89 = trunc i32 %88 to i8
  store i8 %89, ptr %85, align 1, !tbaa !50
  %90 = load ptr, ptr %9, align 8, !tbaa !41
  %91 = getelementptr inbounds i16, ptr %90, i64 7
  %92 = load i16, ptr %91, align 2, !tbaa !45
  %93 = sext i16 %92 to i32
  %94 = load ptr, ptr %8, align 8, !tbaa !39
  %95 = getelementptr inbounds i8, ptr %94, i64 7
  %96 = load i8, ptr %95, align 1, !tbaa !50
  %97 = zext i8 %96 to i32
  %98 = add i32 %97, %93
  %99 = trunc i32 %98 to i8
  store i8 %99, ptr %95, align 1, !tbaa !50
  %100 = load i32, ptr %6, align 4, !tbaa !9
  %101 = load ptr, ptr %8, align 8, !tbaa !39
  %102 = sext i32 %100 to i64
  %103 = getelementptr inbounds i8, ptr %101, i64 %102
  store ptr %103, ptr %8, align 8, !tbaa !39
  %104 = load ptr, ptr %9, align 8, !tbaa !41
  %105 = getelementptr inbounds i16, ptr %104, i64 8
  store ptr %105, ptr %9, align 8, !tbaa !41
  br label %106

106:                                              ; preds = %19
  %107 = load i32, ptr %7, align 4, !tbaa !9
  %108 = add nsw i32 %107, 1
  store i32 %108, ptr %7, align 4, !tbaa !9
  br label %16, !llvm.loop !52

109:                                              ; preds = %16
  %110 = load ptr, ptr %5, align 8, !tbaa !41
  call void @llvm.memset.p0.i64(ptr align 2 %110, i8 0, i64 128, i1 false)
  call void @llvm.lifetime.end.p0(i64 8, ptr %9) #9
  call void @llvm.lifetime.end.p0(i64 8, ptr %8) #9
  call void @llvm.lifetime.end.p0(i64 4, ptr %7) #9
  ret void
}