; Function Attrs: nofree norecurse nosync nounwind memory(argmem: readwrite) uwtable
define internal void @ff_h264_add_pixels8_8_c(ptr noundef captures(none) %0, ptr noundef captures(none) %1, i32 noundef %2) #1 {
.lver.check:
  %3 = sext i32 %2 to i64
  %ident.check.not = icmp eq i32 %2, 1
  br i1 %ident.check.not, label %.ph, label %.ph.lver.orig

.ph.lver.orig:                                    ; preds = %.lver.check, %.ph.lver.orig
  %.028.lver.orig = phi ptr [ %51, %.ph.lver.orig ], [ %1, %.lver.check ]
  %.02427.lver.orig = phi ptr [ %50, %.ph.lver.orig ], [ %0, %.lver.check ]
  %.02526.lver.orig = phi i32 [ %52, %.ph.lver.orig ], [ 0, %.lver.check ]
  %4 = load i16, ptr %.028.lver.orig, align 2, !tbaa !37
  %5 = trunc i16 %4 to i8
  %6 = load i8, ptr %.02427.lver.orig, align 1, !tbaa !42
  %7 = add i8 %6, %5
  store i8 %7, ptr %.02427.lver.orig, align 1, !tbaa !42
  %8 = getelementptr inbounds nuw i8, ptr %.028.lver.orig, i64 2
  %9 = load i16, ptr %8, align 2, !tbaa !37
  %10 = trunc i16 %9 to i8
  %11 = getelementptr inbounds nuw i8, ptr %.02427.lver.orig, i64 1
  %12 = load i8, ptr %11, align 1, !tbaa !42
  %13 = add i8 %12, %10
  store i8 %13, ptr %11, align 1, !tbaa !42
  %14 = getelementptr inbounds nuw i8, ptr %.028.lver.orig, i64 4
  %15 = load i16, ptr %14, align 2, !tbaa !37
  %16 = trunc i16 %15 to i8
  %17 = getelementptr inbounds nuw i8, ptr %.02427.lver.orig, i64 2
  %18 = load i8, ptr %17, align 1, !tbaa !42
  %19 = add i8 %18, %16
  store i8 %19, ptr %17, align 1, !tbaa !42
  %20 = getelementptr inbounds nuw i8, ptr %.028.lver.orig, i64 6
  %21 = load i16, ptr %20, align 2, !tbaa !37
  %22 = trunc i16 %21 to i8
  %23 = getelementptr inbounds nuw i8, ptr %.02427.lver.orig, i64 3
  %24 = load i8, ptr %23, align 1, !tbaa !42
  %25 = add i8 %24, %22
  store i8 %25, ptr %23, align 1, !tbaa !42
  %26 = getelementptr inbounds nuw i8, ptr %.028.lver.orig, i64 8
  %27 = load i16, ptr %26, align 2, !tbaa !37
  %28 = trunc i16 %27 to i8
  %29 = getelementptr inbounds nuw i8, ptr %.02427.lver.orig, i64 4
  %30 = load i8, ptr %29, align 1, !tbaa !42
  %31 = add i8 %30, %28
  store i8 %31, ptr %29, align 1, !tbaa !42
  %32 = getelementptr inbounds nuw i8, ptr %.028.lver.orig, i64 10
  %33 = load i16, ptr %32, align 2, !tbaa !37
  %34 = trunc i16 %33 to i8
  %35 = getelementptr inbounds nuw i8, ptr %.02427.lver.orig, i64 5
  %36 = load i8, ptr %35, align 1, !tbaa !42
  %37 = add i8 %36, %34
  store i8 %37, ptr %35, align 1, !tbaa !42
  %38 = getelementptr inbounds nuw i8, ptr %.028.lver.orig, i64 12
  %39 = load i16, ptr %38, align 2, !tbaa !37
  %40 = trunc i16 %39 to i8
  %41 = getelementptr inbounds nuw i8, ptr %.02427.lver.orig, i64 6
  %42 = load i8, ptr %41, align 1, !tbaa !42
  %43 = add i8 %42, %40
  store i8 %43, ptr %41, align 1, !tbaa !42
  %44 = getelementptr inbounds nuw i8, ptr %.028.lver.orig, i64 14
  %45 = load i16, ptr %44, align 2, !tbaa !37
  %46 = trunc i16 %45 to i8
  %47 = getelementptr inbounds nuw i8, ptr %.02427.lver.orig, i64 7
  %48 = load i8, ptr %47, align 1, !tbaa !42
  %49 = add i8 %48, %46
  store i8 %49, ptr %47, align 1, !tbaa !42
  %50 = getelementptr inbounds i8, ptr %.02427.lver.orig, i64 %3
  %51 = getelementptr inbounds nuw i8, ptr %.028.lver.orig, i64 16
  %52 = add nuw nsw i32 %.02526.lver.orig, 1
  %exitcond.not.lver.orig = icmp eq i32 %52, 8
  br i1 %exitcond.not.lver.orig, label %.loopexit, label %.ph.lver.orig, !llvm.loop !44

.ph:                                              ; preds = %.lver.check
  %scevgep = getelementptr i8, ptr %0, i64 6
  %load_initial = load i8, ptr %scevgep, align 1
  br label %53

53:                                               ; preds = %.ph, %53
  %store_forwarded = phi i8 [ %load_initial, %.ph ], [ %98, %53 ]
  %.028 = phi ptr [ %1, %.ph ], [ %100, %53 ]
  %.02427 = phi ptr [ %0, %.ph ], [ %99, %53 ]
  %.02526 = phi i32 [ 0, %.ph ], [ %101, %53 ]
  %54 = load i16, ptr %.028, align 2, !tbaa !37
  %55 = trunc i16 %54 to i8
  %56 = load i8, ptr %.02427, align 1, !tbaa !42
  %57 = add i8 %56, %55
  store i8 %57, ptr %.02427, align 1, !tbaa !42
  %58 = getelementptr inbounds nuw i8, ptr %.028, i64 2
  %59 = load i16, ptr %58, align 2, !tbaa !37
  %60 = trunc i16 %59 to i8
  %61 = getelementptr inbounds nuw i8, ptr %.02427, i64 1
  %62 = load i8, ptr %61, align 1, !tbaa !42
  %63 = add i8 %62, %60
  store i8 %63, ptr %61, align 1, !tbaa !42
  %64 = getelementptr inbounds nuw i8, ptr %.028, i64 4
  %65 = load i16, ptr %64, align 2, !tbaa !37
  %66 = trunc i16 %65 to i8
  %67 = getelementptr inbounds nuw i8, ptr %.02427, i64 2
  %68 = load i8, ptr %67, align 1, !tbaa !42
  %69 = add i8 %68, %66
  store i8 %69, ptr %67, align 1, !tbaa !42
  %70 = getelementptr inbounds nuw i8, ptr %.028, i64 6
  %71 = load i16, ptr %70, align 2, !tbaa !37
  %72 = trunc i16 %71 to i8
  %73 = getelementptr inbounds nuw i8, ptr %.02427, i64 3
  %74 = load i8, ptr %73, align 1, !tbaa !42
  %75 = add i8 %74, %72
  store i8 %75, ptr %73, align 1, !tbaa !42
  %76 = getelementptr inbounds nuw i8, ptr %.028, i64 8
  %77 = load i16, ptr %76, align 2, !tbaa !37
  %78 = trunc i16 %77 to i8
  %79 = getelementptr inbounds nuw i8, ptr %.02427, i64 4
  %80 = load i8, ptr %79, align 1, !tbaa !42
  %81 = add i8 %80, %78
  store i8 %81, ptr %79, align 1, !tbaa !42
  %82 = getelementptr inbounds nuw i8, ptr %.028, i64 10
  %83 = load i16, ptr %82, align 2, !tbaa !37
  %84 = trunc i16 %83 to i8
  %85 = getelementptr inbounds nuw i8, ptr %.02427, i64 5
  %86 = load i8, ptr %85, align 1, !tbaa !42
  %87 = add i8 %86, %84
  store i8 %87, ptr %85, align 1, !tbaa !42
  %88 = getelementptr inbounds nuw i8, ptr %.028, i64 12
  %89 = load i16, ptr %88, align 2, !tbaa !37
  %90 = trunc i16 %89 to i8
  %91 = getelementptr inbounds nuw i8, ptr %.02427, i64 6
  %92 = add i8 %store_forwarded, %90
  store i8 %92, ptr %91, align 1, !tbaa !42
  %93 = getelementptr inbounds nuw i8, ptr %.028, i64 14
  %94 = load i16, ptr %93, align 2, !tbaa !37
  %95 = trunc i16 %94 to i8
  %96 = getelementptr inbounds nuw i8, ptr %.02427, i64 7
  %97 = load i8, ptr %96, align 1, !tbaa !42
  %98 = add i8 %97, %95
  store i8 %98, ptr %96, align 1, !tbaa !42
  %99 = getelementptr inbounds nuw i8, ptr %.02427, i64 %3
  %100 = getelementptr inbounds nuw i8, ptr %.028, i64 16
  %101 = add nuw nsw i32 %.02526, 1
  %exitcond.not = icmp eq i32 %101, 8
  br i1 %exitcond.not, label %.loopexit, label %53, !llvm.loop !44

.loopexit:                                        ; preds = %.ph.lver.orig, %53
  tail call void @llvm.memset.p0.i64(ptr noundef nonnull align 2 dereferenceable(128) %1, i8 0, i64 128, i1 false)
  ret void
}